; Function Attrs: nounwind uwtable
define void @SCT_print(ptr noundef %0, ptr noundef %1, i32 noundef %2, ptr noundef %3) local_unnamed_addr #0 {
  %5 = alloca [20 x i8], align 16
  %.not = icmp eq ptr %3, null
  br i1 %.not, label %12, label %6

6:                                                ; preds = %4
  %7 = getelementptr inbounds nuw i8, ptr %0, i64 24
  %8 = load ptr, ptr %7, align 8, !tbaa !3
  %9 = getelementptr inbounds nuw i8, ptr %0, i64 32
  %10 = load i64, ptr %9, align 8, !tbaa !11
  %11 = tail call ptr @CTLOG_STORE_get0_log_by_id(ptr noundef nonnull %3, ptr noundef %8, i64 noundef %10) #3
  br label %12

12:                                               ; preds = %6, %4
  %.0 = phi ptr [ %11, %6 ], [ null, %4 ]
  %13 = tail call i32 (ptr, ptr, ...) @BIO_printf(ptr noundef %1, ptr noundef nonnull @.str.7, i32 noundef %2, ptr noundef nonnull @.str.8) #3
  %14 = add nsw i32 %2, 4
  %15 = tail call i32 (ptr, ptr, ...) @BIO_printf(ptr noundef %1, ptr noundef nonnull @.str.9, i32 noundef %14, ptr noundef nonnull @.str.8) #3
  %16 = load i32, ptr %0, align 8, !tbaa !12
  %.not49 = icmp eq i32 %16, 0
  br i1 %.not49, label %26, label %17

17:                                               ; preds = %12
  %18 = add nsw i32 %2, 16
  %19 = tail call i32 (ptr, ptr, ...) @BIO_printf(ptr noundef %1, ptr noundef nonnull @.str.10, i32 noundef %18, ptr noundef nonnull @.str.8) #3
  %20 = getelementptr inbounds nuw i8, ptr %0, i64 8
  %21 = load ptr, ptr %20, align 8, !tbaa !13
  %22 = getelementptr inbounds nuw i8, ptr %0, i64 16
  %23 = load i64, ptr %22, align 8, !tbaa !14
  %24 = trunc i64 %23 to i32
  %25 = tail call i32 @BIO_hex_string(ptr noundef %1, i32 noundef %18, i32 noundef 16, ptr noundef %21, i32 noundef %24) #3
  br label %92

26:                                               ; preds = %12
  %27 = tail call i32 (ptr, ptr, ...) @BIO_printf(ptr noundef %1, ptr noundef nonnull @.str.11) #3
  %.not50 = icmp eq ptr %.0, null
  br i1 %.not50, label %31, label %28

28:                                               ; preds = %26
  %29 = tail call ptr @CTLOG_get0_name(ptr noundef nonnull %.0) #3
  %30 = tail call i32 (ptr, ptr, ...) @BIO_printf(ptr noundef %1, ptr noundef nonnull @.str.12, i32 noundef %14, ptr noundef nonnull @.str.8, ptr noundef %29) #3
  br label %31

31:                                               ; preds = %28, %26
  %32 = tail call i32 (ptr, ptr, ...) @BIO_printf(ptr noundef %1, ptr noundef nonnull @.str.13, i32 noundef %14, ptr noundef nonnull @.str.8) #3
  %33 = add nsw i32 %2, 16
  %34 = getelementptr inbounds nuw i8, ptr %0, i64 24
  %35 = load ptr, ptr %34, align 8, !tbaa !3
  %36 = getelementptr inbounds nuw i8, ptr %0, i64 32
  %37 = load i64, ptr %36, align 8, !tbaa !11
  %38 = trunc i64 %37 to i32
  %39 = tail call i32 @BIO_hex_string(ptr noundef %1, i32 noundef %33, i32 noundef 16, ptr noundef %35, i32 noundef %38) #3
  %40 = tail call i32 (ptr, ptr, ...) @BIO_printf(ptr noundef %1, ptr noundef nonnull @.str.14, i32 noundef %14, ptr noundef nonnull @.str.8) #3
  %41 = getelementptr inbounds nuw i8, ptr %0, i64 40
  %42 = load i64, ptr %41, align 8, !tbaa !15
  %43 = tail call ptr @ASN1_GENERALIZEDTIME_new() #3
  call void @llvm.lifetime.start.p0(i64 20, ptr nonnull %5) #3
  %44 = icmp eq ptr %43, null
  br i1 %44, label %timestamp_print.exit, label %45

45:                                               ; preds = %31
  %46 = udiv i64 %42, 86400000
  %47 = trunc i64 %46 to i32
  %48 = urem i64 %42, 86400000
  %.lhs.trunc.i = trunc nuw nsw i64 %48 to i32
  %49 = udiv i32 %.lhs.trunc.i, 1000
  %.zext.i = zext nneg i32 %49 to i64
  %50 = tail call ptr @ASN1_GENERALIZEDTIME_adj(ptr noundef nonnull %43, i64 noundef 0, i32 noundef %47, i64 noundef %.zext.i) #3
  %51 = tail call ptr @ASN1_STRING_get0_data(ptr noundef nonnull %43) #3
  %52 = urem i64 %42, 1000
  %53 = trunc nuw nsw i64 %52 to i32
  %54 = call i32 (ptr, i64, ptr, ...) @BIO_snprintf(ptr noundef nonnull %5, i64 noundef 20, ptr noundef nonnull @.str.20, ptr noundef %51, i32 noundef %53) #3
  %55 = call i32 @ASN1_GENERALIZEDTIME_set_string(ptr noundef nonnull %43, ptr noundef nonnull %5) #3
  %.not.i = icmp eq i32 %55, 0
  br i1 %.not.i, label %58, label %56

56:                                               ; preds = %45
  %57 = call i32 @ASN1_GENERALIZEDTIME_print(ptr noundef %1, ptr noundef nonnull %43) #3
  br label %58

58:                                               ; preds = %56, %45
  call void @ASN1_GENERALIZEDTIME_free(ptr noundef nonnull %43) #3
  br label %timestamp_print.exit

timestamp_print.exit:                             ; preds = %31, %58
  call void @llvm.lifetime.end.p0(i64 20, ptr nonnull %5) #3
  %59 = call i32 (ptr, ptr, ...) @BIO_printf(ptr noundef %1, ptr noundef nonnull @.str.15, i32 noundef %14, ptr noundef nonnull @.str.8) #3
  %60 = getelementptr inbounds nuw i8, ptr %0, i64 56
  %61 = load i64, ptr %60, align 8, !tbaa !16
  %62 = icmp eq i64 %61, 0
  br i1 %62, label %63, label %65

63:                                               ; preds = %timestamp_print.exit
  %64 = call i32 (ptr, ptr, ...) @BIO_printf(ptr noundef %1, ptr noundef nonnull @.str.16) #3
  br label %70

65:                                               ; preds = %timestamp_print.exit
  %66 = getelementptr inbounds nuw i8, ptr %0, i64 48
  %67 = load ptr, ptr %66, align 8, !tbaa !17
  %68 = trunc i64 %61 to i32
  %69 = call i32 @BIO_hex_string(ptr noundef %1, i32 noundef %33, i32 noundef 16, ptr noundef %67, i32 noundef %68) #3
  br label %70

70:                                               ; preds = %65, %63
  %71 = call i32 (ptr, ptr, ...) @BIO_printf(ptr noundef %1, ptr noundef nonnull @.str.17, i32 noundef %14, ptr noundef nonnull @.str.8) #3
  %72 = call i32 @SCT_get_signature_nid(ptr noundef nonnull %0) #3
  %73 = icmp eq i32 %72, 0
  br i1 %73, label %74, label %82

74:                                               ; preds = %70
  %75 = getelementptr inbounds nuw i8, ptr %0, i64 64
  %76 = load i8, ptr %75, align 8, !tbaa !18
  %77 = zext i8 %76 to i32
  %78 = getelementptr inbounds nuw i8, ptr %0, i64 65
  %79 = load i8, ptr %78, align 1, !tbaa !19
  %80 = zext i8 %79 to i32
  %81 = call i32 (ptr, ptr, ...) @BIO_printf(ptr noundef %1, ptr noundef nonnull @.str.21, i32 noundef %77, i32 noundef %80) #3
  br label %SCT_signature_algorithms_print.exit

82:                                               ; preds = %70
  %83 = call ptr @OBJ_nid2ln(i32 noundef %72) #3
  %84 = call i32 (ptr, ptr, ...) @BIO_printf(ptr noundef %1, ptr noundef nonnull @.str.19, ptr noundef %83) #3
  br label %SCT_signature_algorithms_print.exit

SCT_signature_algorithms_print.exit:              ; preds = %74, %82
  %85 = call i32 (ptr, ptr, ...) @BIO_printf(ptr noundef %1, ptr noundef nonnull @.str.18, i32 noundef %14, ptr noundef nonnull @.str.8) #3
  %86 = getelementptr inbounds nuw i8, ptr %0, i64 72
  %87 = load ptr, ptr %86, align 8, !tbaa !20
  %88 = getelementptr inbounds nuw i8, ptr %0, i64 80
  %89 = load i64, ptr %88, align 8, !tbaa !21
  %90 = trunc i64 %89 to i32
  %91 = call i32 @BIO_hex_string(ptr noundef %1, i32 noundef %33, i32 noundef 16, ptr noundef %87, i32 noundef %90) #3
  br label %92

92:                                               ; preds = %SCT_signature_algorithms_print.exit, %17
  ret void
}